; Function Attrs: nounwind uwtable
define internal void @_color_picker_callback(ptr readnone captures(none) %0, ptr noundef readonly captures(none) %1) #1 {
  %3 = getelementptr i8, ptr %1, i64 704
  %.val = load ptr, ptr %3, align 16, !tbaa !6
  %.not.i = icmp eq ptr %.val, null
  br i1 %.not.i, label %_turn_select_region_off.exit, label %4

4:                                                ; preds = %2
  %5 = getelementptr inbounds nuw i8, ptr %.val, i64 100
  store i32 0, ptr %5, align 4, !tbaa !27
  %6 = getelementptr inbounds nuw i8, ptr %.val, i64 136
  store i32 0, ptr %6, align 8, !tbaa !34
  %7 = getelementptr inbounds nuw i8, ptr %.val, i64 88
  %8 = load ptr, ptr %7, align 8, !tbaa !113
  %9 = tail call i64 @gtk_toggle_button_get_type() #23
  %10 = tail call ptr @g_type_check_instance_cast(ptr noundef %8, i64 noundef %9) #21
  %11 = load i32, ptr %5, align 4, !tbaa !27
  tail call void @gtk_toggle_button_set_active(ptr noundef %10, i32 noundef %11) #21
  br label %_turn_select_region_off.exit

_turn_select_region_off.exit:                     ; preds = %2, %4
  ret void
}